Certificate:
    Data:
        Version: 3 (0x2)
        Serial Number:
            35:19:be:ba:10:ce:03:ea:4d:f7:c9:e5:48:c6:bc:79:a7:49:0f:ac
        Signature Algorithm: sha256WithRSAEncryption
        Issuer: C=US, ST=CA, L=SanFrancisco, O=Evil Inc, OU=changeme, CN=changeme/name=changeme/emailAddress=mail@host.domain
        Validity
            Not Before: May 12 02:04:15 2022 GMT
            Not After : May 11 02:04:15 2032 GMT
        Subject: C=US, ST=CA, L=SanFrancisco, O=Evil Inc, OU=changeme, CN=changeme/name=changeme/emailAddress=mail@host.domain
        Subject Public Key Info:
            Public Key Algorithm: rsaEncryption
                Public-Key: (2048 bit)
                Modulus:
                    00:bf:af:80:18:34:78:00:01:a5:2c:16:86:d5:99:
                    b7:db:15:d8:8b:94:83:d1:57:8c:eb:a4:68:72:42:
                    c9:e6:5b:13:83:c6:00:11:dc:96:05:4e:3e:ea:91:
                    29:ec:2f:50:44:da:f8:2b:2e:90:c4:a4:aa:42:dd:
                    af:16:73:d4:58:c3:0f:d9:68:84:7d:fc:00:cd:5a:
                    b3:9d:ef:0b:8e:2f:e0:ef:44:03:d0:13:07:e4:a7:
                    2f:38:a7:6b:b2:1b:98:c2:19:2c:cc:4d:ff:9c:66:
                    41:34:d4:eb:bb:ae:c4:82:2b:0b:22:73:b0:eb:11:
                    30:87:1a:96:2b:df:ba:df:4e:b4:06:a4:e3:c7:c2:
                    3c:54:6e:07:5f:0a:9b:15:f5:6d:ab:3c:4f:2b:24:
                    42:ac:bb:06:88:f3:5e:bd:5e:4e:ca:8e:46:37:51:
                    dc:2e:81:a3:7b:fd:98:98:5f:29:43:0a:1a:a3:83:
                    41:8b:df:d5:b2:ec:6e:6d:04:01:7b:67:b7:04:4d:
                    55:8b:b8:4c:2a:27:57:ff:f1:ee:88:13:4e:3f:31:
                    2c:ba:95:82:3a:b6:d3:06:ac:ab:de:5a:86:4f:2a:
                    ad:f9:96:36:9c:1f:fd:8b:60:2f:c0:51:cc:61:79:
                    ff:3d:f7:bb:ec:f4:57:95:95:a1:38:1f:07:22:4c:
                    73:39
                Exponent: 65537 (0x10001)
        X509v3 extensions:
            X509v3 Subject Key Identifier: 
                51:EF:0E:E9:2C:C8:FE:F0:22:D9:C0:D9:5E:86:11:FD:44:A1:41:2E
            X509v3 Authority Key Identifier: 
                51:EF:0E:E9:2C:C8:FE:F0:22:D9:C0:D9:5E:86:11:FD:44:A1:41:2E
            X509v3 Basic Constraints: critical
                CA:TRUE
    Signature Algorithm: sha256WithRSAEncryption
    Signature Value:
        86:68:ad:2f:73:50:db:76:2a:38:01:23:7d:e3:94:44:7b:82:
        ff:32:cc:6f:fd:c8:92:7e:4d:d9:e5:a6:e5:d4:e8:3f:5f:de:
        fa:e1:3d:c7:a0:d7:e8:28:65:ef:0a:85:9b:b9:95:05:0e:90:
        4d:6c:73:44:e4:1c:f5:36:6f:bc:02:65:cc:a8:a1:b0:c7:96:
        8e:38:6a:c9:c4:9b:85:1a:44:5b:b1:6d:fc:d9:58:ab:5d:96:
        20:56:e7:6b:bc:47:7f:04:47:fa:83:8a:87:5a:c7:3c:21:6e:
        a1:84:ac:14:41:93:c4:52:3f:32:24:35:42:bb:97:21:db:6d:
        35:3b:9f:6f:2a:7b:f4:70:80:9c:1a:7f:4d:11:36:29:54:35:
        0f:19:6d:78:04:d7:8c:f6:0f:88:f5:35:f3:79:e2:7e:e9:21:
        09:76:47:9f:ae:65:8f:8f:f6:60:e4:cf:37:da:18:c1:19:c5:
        5b:19:1e:80:c5:aa:b0:d9:d6:6c:5c:1d:02:e1:7a:6d:11:ad:
        da:4d:37:f3:78:90:21:db:2e:cd:21:fc:33:cf:d0:90:d3:28:
        1e:9e:c0:0c:a5:17:97:c4:1d:ca:c7:10:1b:72:f4:7c:2a:0c:
        0e:71:4f:cd:b0:31:e7:50:fd:35:07:03:de:1f:8d:c4:71:0b:
        b4:17:6e:69
-----BEGIN CERTIFICATE-----
MIIEHzCCAwegAwIBAgIUNRm+uhDOA+pN98nlSMa8eadJD6wwDQYJKoZIhvcNAQEL
BQAwgZ4xCzAJBgNVBAYTAlVTMQswCQYDVQQIDAJDQTEVMBMGA1UEBwwMU2FuRnJh
bmNpc2NvMREwDwYDVQQKDAhFdmlsIEluYzERMA8GA1UECwwIY2hhbmdlbWUxETAP
BgNVBAMMCGNoYW5nZW1lMREwDwYDVQQpDAhjaGFuZ2VtZTEfMB0GCSqGSIb3DQEJ
ARYQbWFpbEBob3N0LmRvbWFpbjAeFw0yMjA1MTIwMjA0MTVaFw0zMjA1MTEwMjA0
MTVaMIGeMQswCQYDVQQGEwJVUzELMAkGA1UECAwCQ0ExFTATBgNVBAcMDFNhbkZy
YW5jaXNjbzERMA8GA1UECgwIRXZpbCBJbmMxETAPBgNVBAsMCGNoYW5nZW1lMREw
DwYDVQQDDAhjaGFuZ2VtZTERMA8GA1UEKQwIY2hhbmdlbWUxHzAdBgkqhkiG9w0B
CQEWEG1haWxAaG9zdC5kb21haW4wggEiMA0GCSqGSIb3DQEBAQUAA4IBDwAwggEK
AoIBAQC/r4AYNHgAAaUsFobVmbfbFdiLlIPRV4zrpGhyQsnmWxODxgAR3JYFTj7q
kSnsL1BE2vgrLpDEpKpC3a8Wc9RYww/ZaIR9/ADNWrOd7wuOL+DvRAPQEwfkpy84
p2uyG5jCGSzMTf+cZkE01Ou7rsSCKwsic7DrETCHGpYr37rfTrQGpOPHwjxUbgdf
CpsV9W2rPE8rJEKsuwaI8169Xk7KjkY3UdwugaN7/ZiYXylDChqjg0GL39Wy7G5t
BAF7Z7cETVWLuEwqJ1f/8e6IE04/MSy6lYI6ttMGrKveWoZPKq35ljacH/2LYC/A
Ucxhef8997vs9FeVlaE4HwciTHM5AgMBAAGjUzBRMB0GA1UdDgQWBBRR7w7pLMj+
8CLZwNlehhH9RKFBLjAfBgNVHSMEGDAWgBRR7w7pLMj+8CLZwNlehhH9RKFBLjAP
BgNVHRMBAf8EBTADAQH/MA0GCSqGSIb3DQEBCwUAA4IBAQCGaK0vc1Dbdio4ASN9
45REe4L/Msxv/ciSfk3Z5abl1Og/X9764T3HoNfoKGXvCoWbuZUFDpBNbHNE5Bz1
Nm+8AmXMqKGwx5aOOGrJxJuFGkRbsW382VirXZYgVudrvEd/BEf6g4qHWsc8IW6h
hKwUQZPEUj8yJDVCu5ch2201O59vKnv0cICcGn9NETYpVDUPGW14BNeM9g+I9TXz
eeJ+6SEJdkefrmWPj/Zg5M832hjBGcVbGR6Axaqw2dZsXB0C4XptEa3aTTfzeJAh
2y7NIfwzz9CQ0ygensAMpReXxB3KxxAbcvR8KgwOcU/NsDHnUP01BwPeH43EcQu0
F25p
-----END CERTIFICATE-----
