Certificate:
    Data:
        Version: 3 (0x2)
        Serial Number:
            52:93:3b:eb:8a:c5:e9:eb:36:99:4c:62:5f:9a:13:4d:7f:fc:e9:39
        Signature Algorithm: sha256WithRSAEncryption
        Issuer: C=US, ST=CA, L=SanFrancisco, O=Evil Inc, OU=changeme, CN=changeme/name=changeme/emailAddress=mail@host.domain
        Validity
            Not Before: May 12 02:04:15 2022 GMT
            Not After : May 11 02:04:15 2032 GMT
        Subject: C=US, ST=CA, L=SanFrancisco, O=Evil Inc, OU=changeme, CN=changeme/name=changeme/emailAddress=mail@host.domain
        Subject Public Key Info:
            Public Key Algorithm: rsaEncryption
                Public-Key: (2048 bit)
                Modulus:
                    00:ae:8c:19:24:29:d3:ff:b1:55:1c:02:92:87:8d:
                    fc:cf:db:5a:60:45:f0:df:eb:eb:b7:69:b5:6a:87:
                    19:fa:96:a4:9d:2d:8c:71:cd:a1:33:39:22:bc:63:
                    36:36:cb:e4:06:88:cd:0a:a4:a0:a9:5d:57:13:7f:
                    15:9d:9b:d8:66:f1:f8:f5:71:db:a9:c8:a5:1e:f4:
                    57:2c:24:b0:e3:67:02:24:d8:c1:8e:38:73:64:16:
                    c3:82:87:63:d5:7e:43:a6:75:4e:74:08:93:82:3f:
                    2e:96:2c:06:a4:65:6e:f4:33:3d:3d:ff:c3:66:38:
                    17:54:65:29:ae:7f:30:91:29:0a:6b:03:d5:9d:89:
                    21:3e:ff:ee:41:e5:fd:3f:1b:c9:5d:06:92:49:2c:
                    34:e9:51:c5:6e:89:e9:1f:33:26:ca:98:24:8e:04:
                    39:ef:3c:a5:97:90:8a:c9:2b:8e:05:e4:56:82:3a:
                    e6:2d:51:c2:72:45:3b:2e:7c:9f:02:3c:66:96:5f:
                    a9:21:4d:61:3a:37:6e:56:10:f8:40:fa:1b:b5:4d:
                    bc:99:d5:81:04:ed:75:2e:52:ab:4b:de:f6:c3:41:
                    27:8e:37:42:3b:34:68:6a:2d:d2:8f:42:07:58:9a:
                    bc:6b:6a:7b:08:72:ba:ac:de:a3:44:5a:d8:8d:fa:
                    ec:1b
                Exponent: 65537 (0x10001)
        X509v3 extensions:
            X509v3 Basic Constraints: 
                CA:FALSE
            X509v3 Subject Key Identifier: 
                E4:08:A1:99:EE:3C:80:4E:E8:8C:FF:43:E1:4F:2A:49:3D:4E:49:A7
            X509v3 Authority Key Identifier: 
                51:EF:0E:E9:2C:C8:FE:F0:22:D9:C0:D9:5E:86:11:FD:44:A1:41:2E
            X509v3 Extended Key Usage: 
                TLS Web Client Authentication
            X509v3 Subject Alternative Name: 
                DNS:*, DNS:localhost, IP Address:127.0.0.1, IP Address:0:0:0:0:0:0:0:1
    Signature Algorithm: sha256WithRSAEncryption
    Signature Value:
        5c:6b:b8:68:d0:5a:4b:fc:9f:6d:09:16:f7:4c:61:50:2a:d7:
        1c:8e:56:93:0f:b2:95:3f:6c:18:5d:fc:7e:d3:8a:72:45:63:
        8a:c0:a7:ce:76:f9:63:bf:31:98:fa:1d:b4:b9:be:b7:f2:61:
        ee:76:be:4e:ab:71:9e:a1:62:fc:cf:f7:91:59:f0:76:58:f4:
        a3:4e:0b:59:ee:17:b6:bf:ce:55:55:70:a5:6e:cd:30:03:c3:
        ac:d4:7a:38:84:39:de:8a:6b:26:14:dc:04:98:ca:96:eb:b6:
        d1:6e:c9:6f:61:c6:80:a5:4e:29:c5:98:d2:a1:43:84:c1:83:
        83:f7:6f:a9:7b:3a:87:69:71:cd:f1:2c:7b:cf:65:17:62:be:
        46:fa:95:f8:62:05:04:ac:b4:1b:58:02:01:77:f6:ed:72:17:
        c4:9d:df:0d:ab:12:14:87:de:20:21:28:2c:3b:2f:93:3b:a6:
        f2:79:d0:80:c0:94:4d:2b:61:0e:25:ae:a8:0e:d7:00:e5:55:
        6a:31:be:bc:a5:69:ed:2e:f9:b1:eb:d0:d1:eb:a8:60:ad:81:
        60:a9:d8:ca:a3:3b:18:41:13:b0:9e:78:99:bd:52:5f:17:0f:
        f9:d1:60:6b:81:3a:06:af:6f:f2:b8:fd:f9:09:35:10:2b:f2:
        57:0e:ac:8c
-----BEGIN CERTIFICATE-----
MIIEYTCCA0mgAwIBAgIUUpM764rF6es2mUxiX5oTTX/86TkwDQYJKoZIhvcNAQEL
BQAwgZ4xCzAJBgNVBAYTAlVTMQswCQYDVQQIDAJDQTEVMBMGA1UEBwwMU2FuRnJh
bmNpc2NvMREwDwYDVQQKDAhFdmlsIEluYzERMA8GA1UECwwIY2hhbmdlbWUxETAP
BgNVBAMMCGNoYW5nZW1lMREwDwYDVQQpDAhjaGFuZ2VtZTEfMB0GCSqGSIb3DQEJ
ARYQbWFpbEBob3N0LmRvbWFpbjAeFw0yMjA1MTIwMjA0MTVaFw0zMjA1MTEwMjA0
MTVaMIGeMQswCQYDVQQGEwJVUzELMAkGA1UECAwCQ0ExFTATBgNVBAcMDFNhbkZy
YW5jaXNjbzERMA8GA1UECgwIRXZpbCBJbmMxETAPBgNVBAsMCGNoYW5nZW1lMREw
DwYDVQQDDAhjaGFuZ2VtZTERMA8GA1UEKQwIY2hhbmdlbWUxHzAdBgkqhkiG9w0B
CQEWEG1haWxAaG9zdC5kb21haW4wggEiMA0GCSqGSIb3DQEBAQUAA4IBDwAwggEK
AoIBAQCujBkkKdP/sVUcApKHjfzP21pgRfDf6+u3abVqhxn6lqSdLYxxzaEzOSK8
YzY2y+QGiM0KpKCpXVcTfxWdm9hm8fj1cdupyKUe9FcsJLDjZwIk2MGOOHNkFsOC
h2PVfkOmdU50CJOCPy6WLAakZW70Mz09/8NmOBdUZSmufzCRKQprA9WdiSE+/+5B
5f0/G8ldBpJJLDTpUcVuiekfMybKmCSOBDnvPKWXkIrJK44F5FaCOuYtUcJyRTsu
fJ8CPGaWX6khTWE6N25WEPhA+hu1TbyZ1YEE7XUuUqtL3vbDQSeON0I7NGhqLdKP
QgdYmrxransIcrqs3qNEWtiN+uwbAgMBAAGjgZQwgZEwCQYDVR0TBAIwADAdBgNV
HQ4EFgQU5Aihme48gE7ojP9D4U8qST1OSacwHwYDVR0jBBgwFoAUUe8O6SzI/vAi
2cDZXoYR/UShQS4wEwYDVR0lBAwwCgYIKwYBBQUHAwIwLwYDVR0RBCgwJoIBKoIJ
bG9jYWxob3N0hwR/AAABhxAAAAAAAAAAAAAAAAAAAAABMA0GCSqGSIb3DQEBCwUA
A4IBAQBca7ho0FpL/J9tCRb3TGFQKtccjlaTD7KVP2wYXfx+04pyRWOKwKfOdvlj
vzGY+h20ub638mHudr5Oq3GeoWL8z/eRWfB2WPSjTgtZ7he2v85VVXClbs0wA8Os
1Ho4hDneimsmFNwEmMqW67bRbslvYcaApU4pxZjSoUOEwYOD92+pezqHaXHN8Sx7
z2UXYr5G+pX4YgUErLQbWAIBd/btchfEnd8NqxIUh94gISgsOy+TO6byedCAwJRN
K2EOJa6oDtcA5VVqMb68pWntLvmx69DR66hgrYFgqdjKozsYQROwnniZvVJfFw/5
0WBrgToGr2/yuP35CTUQK/JXDqyM
-----END CERTIFICATE-----
