Certificate:
    Data:
        Version: 3 (0x2)
        Serial Number:
            1d:a9:ba:72:c5:13:0a:5a:64:34:7d:9a:9c:06:0f:31:74:d8:1f:44
        Signature Algorithm: sha256WithRSAEncryption
        Issuer: C=US, ST=CA, L=SanFrancisco, O=Evil Inc, OU=changeme, CN=changeme/name=changeme/emailAddress=mail@host.domain
        Validity
            Not Before: May 12 02:04:15 2022 GMT
            Not After : May 11 02:04:15 2032 GMT
        Subject: C=US, ST=CA, L=SanFrancisco, O=Evil Inc, OU=changeme, CN=changeme/name=changeme/emailAddress=mail@host.domain
        Subject Public Key Info:
            Public Key Algorithm: rsaEncryption
                Public-Key: (2048 bit)
                Modulus:
                    00:88:50:d5:b7:a7:2f:24:35:a2:1b:5a:68:ad:b5:
                    ab:a9:dd:72:1b:15:87:68:36:b2:f5:dd:04:f1:74:
                    bf:4b:7a:fc:f1:82:a1:f0:64:ef:fc:ab:b2:3e:93:
                    23:24:54:c5:5b:39:43:7b:c4:2d:4c:dc:90:d5:0d:
                    2e:7f:81:7d:50:36:34:42:c6:6d:95:13:58:82:a6:
                    a9:49:b4:0c:0d:4f:c5:05:e4:67:25:54:16:bd:05:
                    c2:59:79:4c:c2:fe:49:5e:ed:19:40:e8:28:e4:47:
                    76:6f:6b:94:1a:40:e4:01:99:ca:9c:26:1b:2c:e6:
                    a7:0b:5a:57:ea:f1:11:60:fb:c0:e5:a0:25:a0:1c:
                    c0:ca:54:59:fe:be:7d:da:72:19:58:19:e2:5f:e3:
                    d0:f6:f1:f2:97:2f:6e:52:9a:bf:17:c2:af:21:01:
                    1e:d1:d2:2f:26:09:0c:68:2f:27:43:52:0b:69:2e:
                    85:8f:a5:30:35:e5:3d:e5:93:01:9c:5d:14:b2:0a:
                    08:03:35:69:6a:71:e2:e1:be:e2:55:75:28:bd:cf:
                    7e:2b:90:1f:bd:64:56:9e:62:c6:48:2b:40:41:63:
                    52:52:d8:ff:65:02:b7:af:58:17:e6:f6:bc:1f:6d:
                    e5:8b:eb:5f:b6:61:4e:d5:fe:3e:e2:dd:dc:92:d5:
                    29:fb
                Exponent: 65537 (0x10001)
        X509v3 extensions:
            X509v3 Basic Constraints: 
                CA:FALSE
            X509v3 Subject Key Identifier: 
                C7:67:8E:34:B7:19:C7:7A:66:A9:B5:94:13:04:16:2A:06:BE:DE:59
            X509v3 Authority Key Identifier: 
                51:EF:0E:E9:2C:C8:FE:F0:22:D9:C0:D9:5E:86:11:FD:44:A1:41:2E
            X509v3 Extended Key Usage: 
                TLS Web Server Authentication
            X509v3 Subject Alternative Name: 
                DNS:*, DNS:localhost, IP Address:127.0.0.1, IP Address:0:0:0:0:0:0:0:1
    Signature Algorithm: sha256WithRSAEncryption
    Signature Value:
        7f:7b:46:ad:12:8d:7b:aa:7b:19:44:38:18:97:06:60:8c:0e:
        13:12:bc:dc:3f:84:21:eb:21:2e:84:1a:84:0f:88:fd:3c:60:
        ef:71:9d:ec:29:2e:7a:c1:c2:89:d4:20:85:4a:d1:7c:94:41:
        d1:ab:86:37:b7:5d:ad:1a:c8:a3:e1:76:3b:bd:08:2c:e9:d2:
        d9:4c:95:aa:e4:96:9e:e3:7a:7f:6f:7b:a7:c5:31:c8:7e:59:
        82:85:20:33:1f:ef:13:c1:cb:ca:1f:b9:18:8e:30:af:a8:c6:
        6b:c0:bf:04:33:16:e9:de:09:d8:76:6e:a0:4c:fb:8a:a0:53:
        99:46:84:c2:59:94:3f:d6:e7:32:bb:b1:37:00:73:ce:9f:e8:
        0e:94:2a:44:11:3e:da:88:c7:65:6f:f0:b4:55:d7:e0:cf:38:
        de:9b:f4:ca:d4:ad:a3:2f:b2:7f:f8:9b:5c:cd:98:59:20:19:
        3e:d2:1f:a1:95:99:a9:70:e8:52:a7:d1:f2:47:fd:ed:80:ab:
        9c:d3:9f:b2:54:24:d5:96:05:df:64:54:b5:f0:26:56:ce:6b:
        07:b2:93:05:9f:b5:43:9c:71:c3:d4:59:e3:b5:c2:67:3d:45:
        a4:55:5f:c9:94:93:a6:24:96:c0:7a:33:bc:11:e9:0b:bf:0d:
        4d:25:9e:c6
-----BEGIN CERTIFICATE-----
MIIEYTCCA0mgAwIBAgIUHam6csUTClpkNH2anAYPMXTYH0QwDQYJKoZIhvcNAQEL
BQAwgZ4xCzAJBgNVBAYTAlVTMQswCQYDVQQIDAJDQTEVMBMGA1UEBwwMU2FuRnJh
bmNpc2NvMREwDwYDVQQKDAhFdmlsIEluYzERMA8GA1UECwwIY2hhbmdlbWUxETAP
BgNVBAMMCGNoYW5nZW1lMREwDwYDVQQpDAhjaGFuZ2VtZTEfMB0GCSqGSIb3DQEJ
ARYQbWFpbEBob3N0LmRvbWFpbjAeFw0yMjA1MTIwMjA0MTVaFw0zMjA1MTEwMjA0
MTVaMIGeMQswCQYDVQQGEwJVUzELMAkGA1UECAwCQ0ExFTATBgNVBAcMDFNhbkZy
YW5jaXNjbzERMA8GA1UECgwIRXZpbCBJbmMxETAPBgNVBAsMCGNoYW5nZW1lMREw
DwYDVQQDDAhjaGFuZ2VtZTERMA8GA1UEKQwIY2hhbmdlbWUxHzAdBgkqhkiG9w0B
CQEWEG1haWxAaG9zdC5kb21haW4wggEiMA0GCSqGSIb3DQEBAQUAA4IBDwAwggEK
AoIBAQCIUNW3py8kNaIbWmittaup3XIbFYdoNrL13QTxdL9LevzxgqHwZO/8q7I+
kyMkVMVbOUN7xC1M3JDVDS5/gX1QNjRCxm2VE1iCpqlJtAwNT8UF5GclVBa9BcJZ
eUzC/kle7RlA6CjkR3Zva5QaQOQBmcqcJhss5qcLWlfq8RFg+8DloCWgHMDKVFn+
vn3achlYGeJf49D28fKXL25Smr8Xwq8hAR7R0i8mCQxoLydDUgtpLoWPpTA15T3l
kwGcXRSyCggDNWlqceLhvuJVdSi9z34rkB+9ZFaeYsZIK0BBY1JS2P9lArevWBfm
9rwfbeWL61+2YU7V/j7i3dyS1Sn7AgMBAAGjgZQwgZEwCQYDVR0TBAIwADAdBgNV
HQ4EFgQUx2eONLcZx3pmqbWUEwQWKga+3lkwHwYDVR0jBBgwFoAUUe8O6SzI/vAi
2cDZXoYR/UShQS4wEwYDVR0lBAwwCgYIKwYBBQUHAwEwLwYDVR0RBCgwJoIBKoIJ
bG9jYWxob3N0hwR/AAABhxAAAAAAAAAAAAAAAAAAAAABMA0GCSqGSIb3DQEBCwUA
A4IBAQB/e0atEo17qnsZRDgYlwZgjA4TErzcP4Qh6yEuhBqED4j9PGDvcZ3sKS56
wcKJ1CCFStF8lEHRq4Y3t12tGsij4XY7vQgs6dLZTJWq5Jae43p/b3unxTHIflmC
hSAzH+8TwcvKH7kYjjCvqMZrwL8EMxbp3gnYdm6gTPuKoFOZRoTCWZQ/1ucyu7E3
AHPOn+gOlCpEET7aiMdlb/C0Vdfgzzjem/TK1K2jL7J/+JtczZhZIBk+0h+hlZmp
cOhSp9HyR/3tgKuc05+yVCTVlgXfZFS18CZWzmsHspMFn7VDnHHD1FnjtcJnPUWk
VV/JlJOmJJbAejO8EekLvw1NJZ7G
-----END CERTIFICATE-----
