Certificate:
    Data:
        Version: 3 (0x2)
        Serial Number: 2 (0x2)
        Signature Algorithm: sha256WithRSAEncryption
        Issuer: C=US, ST=CA, L=SanFrancisco, O=Moby-project, OU=ci, CN=moby-ci/name=moby/emailAddress=moby@example.org
        Validity
            Not Before: May 17 19:49:34 2021 GMT
            Not After : May 17 19:49:34 2031 GMT
        Subject: C=US, ST=CA, L=SanFrancisco, O=Moby-project, OU=ci, CN=server/name=moby/emailAddress=moby@example.org
        Subject Public Key Info:
            Public Key Algorithm: rsaEncryption
                RSA Public-Key: (2048 bit)
                Modulus:
                    00:f2:23:b2:a3:22:03:a2:0b:cd:71:de:19:29:14:
                    92:7f:e8:9d:30:7f:e3:0e:13:da:de:f9:9b:5a:65:
                    ec:22:c5:ce:73:e7:2f:c2:ae:c3:04:eb:72:43:77:
                    87:46:d2:63:e2:3a:08:85:9f:58:1f:fc:f3:82:4f:
                    5e:4e:5a:92:0f:ac:a1:16:a0:7e:92:a3:8e:aa:93:
                    fd:4c:e0:ed:f0:96:09:43:b8:e6:ec:72:1b:aa:aa:
                    76:3f:79:00:89:26:c4:2f:ff:99:01:95:f2:8e:39:
                    a0:4f:13:63:bf:6b:6c:40:0f:7c:ed:ee:a8:2b:90:
                    11:94:d8:a9:15:c1:91:40:89:13:eb:49:ec:0d:fe:
                    4f:cd:41:8f:a6:e0:ab:15:db:45:86:28:23:79:98:
                    42:bb:52:a8:96:c3:aa:91:df:5a:67:24:09:4b:2e:
                    ce:9a:ba:fc:97:4e:89:5e:c3:18:08:4e:31:e4:1c:
                    b6:65:c2:7e:93:ef:52:e7:92:ee:25:88:07:4a:d5:
                    3d:86:44:31:07:e5:1a:f5:63:dc:c3:11:b5:4d:10:
                    a0:9c:6a:99:7a:d9:b4:22:07:97:e2:f4:0e:5a:10:
                    bc:90:09:c1:0f:5a:65:e8:f3:9c:e0:e2:04:29:24:
                    ee:a7:ee:aa:fa:02:7f:80:ac:9d:ca:9f:0f:8d:f5:
                    c5:b3
                Exponent: 65537 (0x10001)
        X509v3 extensions:
            X509v3 Basic Constraints: 
                CA:FALSE
            X509v3 Subject Key Identifier: 
                82:DD:B4:72:E4:DB:12:4E:9A:3B:45:75:F0:1B:4E:7F:43:2C:10:BF
            X509v3 Authority Key Identifier: 
                keyid:85:57:D0:FF:A9:B4:1E:1F:80:33:FB:B8:34:ED:7D:06:39:CD:34:98

            X509v3 Extended Key Usage: 
                TLS Web Server Authentication
            X509v3 Subject Alternative Name: 
                DNS:*, DNS:localhost, IP Address:127.0.0.1, IP Address:0:0:0:0:0:0:0:1
    Signature Algorithm: sha256WithRSAEncryption
         1e:a5:f6:ed:f9:8b:a4:c8:1d:11:e3:03:3b:ec:6a:a2:59:44:
         35:d1:28:0a:0e:b5:84:3c:17:3b:38:6f:e5:8c:03:4c:70:13:
         b8:cf:40:3c:4a:5d:bf:96:a6:ca:26:9d:ce:00:13:10:a9:eb:
         91:b4:50:98:a2:68:6f:6b:95:54:46:39:97:74:d6:fd:bb:54:
         f4:27:91:b7:4e:9f:bc:85:5f:51:69:59:87:86:7e:1d:06:10:
         74:f5:c3:e3:81:09:e6:77:f5:b7:ed:ae:1c:b0:56:2e:8d:31:
         60:ff:ef:f5:ab:03:fb:da:9a:69:d8:8a:ca:e7:00:99:d5:9f:
         39:f7:d5:19:4c:57:a1:90:23:c8:21:a3:9b:ab:05:d4:b7:a8:
         7c:12:a9:6e:d5:c3:ae:e0:c0:2c:08:95:da:16:c4:35:e0:89:
         3b:01:f1:f7:b2:d8:15:b6:05:7f:ec:09:fd:0a:5f:a9:48:16:
         11:c1:30:0a:fd:98:71:69:03:91:19:5f:02:14:d7:42:75:fb:
         b7:01:af:c2:09:08:4c:7b:c9:d2:bc:0f:2d:de:57:84:9d:8e:
         a8:f0:22:7e:eb:05:6e:f3:5b:cd:2f:1f:67:b4:3a:2f:b4:b1:
         a6:bd:78:0f:c4:65:c5:01:7a:06:b2:63:3e:a0:de:a7:ef:84:
         cc:17:4b:22
-----BEGIN CERTIFICATE-----
MIIEPzCCAyegAwIBAgIBAjANBgkqhkiG9w0BAQsFADCBlzELMAkGA1UEBhMCVVMx
CzAJBgNVBAgMAkNBMRUwEwYDVQQHDAxTYW5GcmFuY2lzY28xFTATBgNVBAoMDE1v
YnktcHJvamVjdDELMAkGA1UECwwCY2kxEDAOBgNVBAMMB21vYnktY2kxDTALBgNV
BCkMBG1vYnkxHzAdBgkqhkiG9w0BCQEWEG1vYnlAZXhhbXBsZS5vcmcwHhcNMjEw
NTE3MTk0OTM0WhcNMzEwNTE3MTk0OTM0WjCBljELMAkGA1UEBhMCVVMxCzAJBgNV
BAgMAkNBMRUwEwYDVQQHDAxTYW5GcmFuY2lzY28xFTATBgNVBAoMDE1vYnktcHJv
amVjdDELMAkGA1UECwwCY2kxDzANBgNVBAMMBnNlcnZlcjENMAsGA1UEKQwEbW9i
eTEfMB0GCSqGSIb3DQEJARYQbW9ieUBleGFtcGxlLm9yZzCCASIwDQYJKoZIhvcN
AQEBBQADggEPADCCAQoCggEBAPIjsqMiA6ILzXHeGSkUkn/onTB/4w4T2t75m1pl
7CLFznPnL8KuwwTrckN3h0bSY+I6CIWfWB/884JPXk5akg+soRagfpKjjqqT/Uzg
7fCWCUO45uxyG6qqdj95AIkmxC//mQGV8o45oE8TY79rbEAPfO3uqCuQEZTYqRXB
kUCJE+tJ7A3+T81Bj6bgqxXbRYYoI3mYQrtSqJbDqpHfWmckCUsuzpq6/JdOiV7D
GAhOMeQctmXCfpPvUueS7iWIB0rVPYZEMQflGvVj3MMRtU0QoJxqmXrZtCIHl+L0
DloQvJAJwQ9aZejznODiBCkk7qfuqvoCf4CsncqfD431xbMCAwEAAaOBlDCBkTAJ
BgNVHRMEAjAAMB0GA1UdDgQWBBSC3bRy5NsSTpo7RXXwG05/QywQvzAfBgNVHSME
GDAWgBSFV9D/qbQeH4Az+7g07X0GOc00mDATBgNVHSUEDDAKBggrBgEFBQcDATAv
BgNVHREEKDAmggEqgglsb2NhbGhvc3SHBH8AAAGHEAAAAAAAAAAAAAAAAAAAAAEw
DQYJKoZIhvcNAQELBQADggEBAB6l9u35i6TIHRHjAzvsaqJZRDXRKAoOtYQ8Fzs4
b+WMA0xwE7jPQDxKXb+Wpsomnc4AExCp65G0UJiiaG9rlVRGOZd01v27VPQnkbdO
n7yFX1FpWYeGfh0GEHT1w+OBCeZ39bftrhywVi6NMWD/7/WrA/vammnYisrnAJnV
nzn31RlMV6GQI8gho5urBdS3qHwSqW7Vw67gwCwIldoWxDXgiTsB8fey2BW2BX/s
Cf0KX6lIFhHBMAr9mHFpA5EZXwIU10J1+7cBr8IJCEx7ydK8Dy3eV4SdjqjwIn7r
BW7zW80vH2e0Oi+0saa9eA/EZcUBegayYz6g3qfvhMwXSyI=
-----END CERTIFICATE-----
